target datalayout = "e-m:e-p270:32:32-p271:32:32-p272:64:64-i64:64-i128:128-f80:128-n8:16:32:64-S128"
target triple = "x86_64-pc-linux-gnu"

; Function Attrs: mustprogress nounwind uwtable
define noundef i64 @_ZN12duckdb_miniz10mz_adler32EmPKhm(i64 noundef %0, ptr noundef %1, i64 noundef %2) #0 {
  %4 = alloca i64, align 8
  %5 = alloca i64, align 8
  %6 = alloca ptr, align 8
  %7 = alloca i64, align 8
  %8 = alloca i32, align 4
  %9 = alloca i32, align 4
  %10 = alloca i32, align 4
  %11 = alloca i64, align 8
  %12 = alloca i32, align 4
  store i64 %0, ptr %5, align 8, !tbaa !3
  store ptr %1, ptr %6, align 8, !tbaa !7
  store i64 %2, ptr %7, align 8, !tbaa !3
  call void @llvm.lifetime.start.p0(i64 4, ptr %8) #11
  call void @llvm.lifetime.start.p0(i64 4, ptr %9) #11
  %13 = load i64, ptr %5, align 8, !tbaa !3
  %14 = and i64 %13, 65535
  %15 = trunc i64 %14 to i32
  store i32 %15, ptr %9, align 4, !tbaa !10
  call void @llvm.lifetime.start.p0(i64 4, ptr %10) #11
  %16 = load i64, ptr %5, align 8, !tbaa !3
  %17 = lshr i64 %16, 16
  %18 = trunc i64 %17 to i32
  store i32 %18, ptr %10, align 4, !tbaa !10
  call void @llvm.lifetime.start.p0(i64 8, ptr %11) #11
  %19 = load i64, ptr %7, align 8, !tbaa !3
  %20 = urem i64 %19, 5552
  store i64 %20, ptr %11, align 8, !tbaa !3
  %21 = load ptr, ptr %6, align 8, !tbaa !7
  %22 = icmp ne ptr %21, null
  br i1 %22, label %24, label %23

23:                                               ; preds = %3
  store i64 1, ptr %4, align 8
  store i32 1, ptr %12, align 4
  br label %146

24:                                               ; preds = %3
  br label %25

25:                                               ; preds = %132, %24
  %26 = load i64, ptr %7, align 8, !tbaa !3
  %27 = icmp ne i64 %26, 0
  br i1 %27, label %28, label %140

28:                                               ; preds = %25
  store i32 0, ptr %8, align 4, !tbaa !10
  br label %29

29:                                               ; preds = %108, %28
  %30 = load i32, ptr %8, align 4, !tbaa !10
  %31 = add i32 %30, 7
  %32 = zext i32 %31 to i64
  %33 = load i64, ptr %11, align 8, !tbaa !3
  %34 = icmp ult i64 %32, %33
  br i1 %34, label %35, label %113

35:                                               ; preds = %29
  %36 = load ptr, ptr %6, align 8, !tbaa !7
  %37 = getelementptr inbounds i8, ptr %36, i64 0
  %38 = load i8, ptr %37, align 1, !tbaa !12
  %39 = zext i8 %38 to i32
  %40 = load i32, ptr %9, align 4, !tbaa !10
  %41 = add i32 %40, %39
  store i32 %41, ptr %9, align 4, !tbaa !10
  %42 = load i32, ptr %9, align 4, !tbaa !10
  %43 = load i32, ptr %10, align 4, !tbaa !10
  %44 = add i32 %43, %42
  store i32 %44, ptr %10, align 4, !tbaa !10
  %45 = load ptr, ptr %6, align 8, !tbaa !7
  %46 = getelementptr inbounds i8, ptr %45, i64 1
  %47 = load i8, ptr %46, align 1, !tbaa !12
  %48 = zext i8 %47 to i32
  %49 = load i32, ptr %9, align 4, !tbaa !10
  %50 = add i32 %49, %48
  store i32 %50, ptr %9, align 4, !tbaa !10
  %51 = load i32, ptr %9, align 4, !tbaa !10
  %52 = load i32, ptr %10, align 4, !tbaa !10
  %53 = add i32 %52, %51
  store i32 %53, ptr %10, align 4, !tbaa !10
  %54 = load ptr, ptr %6, align 8, !tbaa !7
  %55 = getelementptr inbounds i8, ptr %54, i64 2
  %56 = load i8, ptr %55, align 1, !tbaa !12
  %57 = zext i8 %56 to i32
  %58 = load i32, ptr %9, align 4, !tbaa !10
  %59 = add i32 %58, %57
  store i32 %59, ptr %9, align 4, !tbaa !10
  %60 = load i32, ptr %9, align 4, !tbaa !10
  %61 = load i32, ptr %10, align 4, !tbaa !10
  %62 = add i32 %61, %60
  store i32 %62, ptr %10, align 4, !tbaa !10
  %63 = load ptr, ptr %6, align 8, !tbaa !7
  %64 = getelementptr inbounds i8, ptr %63, i64 3
  %65 = load i8, ptr %64, align 1, !tbaa !12
  %66 = zext i8 %65 to i32
  %67 = load i32, ptr %9, align 4, !tbaa !10
  %68 = add i32 %67, %66
  store i32 %68, ptr %9, align 4, !tbaa !10
  %69 = load i32, ptr %9, align 4, !tbaa !10
  %70 = load i32, ptr %10, align 4, !tbaa !10
  %71 = add i32 %70, %69
  store i32 %71, ptr %10, align 4, !tbaa !10
  %72 = load ptr, ptr %6, align 8, !tbaa !7
  %73 = getelementptr inbounds i8, ptr %72, i64 4
  %74 = load i8, ptr %73, align 1, !tbaa !12
  %75 = zext i8 %74 to i32
  %76 = load i32, ptr %9, align 4, !tbaa !10
  %77 = add i32 %76, %75
  store i32 %77, ptr %9, align 4, !tbaa !10
  %78 = load i32, ptr %9, align 4, !tbaa !10
  %79 = load i32, ptr %10, align 4, !tbaa !10
  %80 = add i32 %79, %78
  store i32 %80, ptr %10, align 4, !tbaa !10
  %81 = load ptr, ptr %6, align 8, !tbaa !7
  %82 = getelementptr inbounds i8, ptr %81, i64 5
  %83 = load i8, ptr %82, align 1, !tbaa !12
  %84 = zext i8 %83 to i32
  %85 = load i32, ptr %9, align 4, !tbaa !10
  %86 = add i32 %85, %84
  store i32 %86, ptr %9, align 4, !tbaa !10
  %87 = load i32, ptr %9, align 4, !tbaa !10
  %88 = load i32, ptr %10, align 4, !tbaa !10
  %89 = add i32 %88, %87
  store i32 %89, ptr %10, align 4, !tbaa !10
  %90 = load ptr, ptr %6, align 8, !tbaa !7
  %91 = getelementptr inbounds i8, ptr %90, i64 6
  %92 = load i8, ptr %91, align 1, !tbaa !12
  %93 = zext i8 %92 to i32
  %94 = load i32, ptr %9, align 4, !tbaa !10
  %95 = add i32 %94, %93
  store i32 %95, ptr %9, align 4, !tbaa !10
  %96 = load i32, ptr %9, align 4, !tbaa !10
  %97 = load i32, ptr %10, align 4, !tbaa !10
  %98 = add i32 %97, %96
  store i32 %98, ptr %10, align 4, !tbaa !10
  %99 = load ptr, ptr %6, align 8, !tbaa !7
  %100 = getelementptr inbounds i8, ptr %99, i64 7
  %101 = load i8, ptr %100, align 1, !tbaa !12
  %102 = zext i8 %101 to i32
  %103 = load i32, ptr %9, align 4, !tbaa !10
  %104 = add i32 %103, %102
  store i32 %104, ptr %9, align 4, !tbaa !10
  %105 = load i32, ptr %9, align 4, !tbaa !10
  %106 = load i32, ptr %10, align 4, !tbaa !10
  %107 = add i32 %106, %105
  store i32 %107, ptr %10, align 4, !tbaa !10
  br label %108

108:                                              ; preds = %35
  %109 = load i32, ptr %8, align 4, !tbaa !10
  %110 = add i32 %109, 8
  store i32 %110, ptr %8, align 4, !tbaa !10
  %111 = load ptr, ptr %6, align 8, !tbaa !7
  %112 = getelementptr inbounds i8, ptr %111, i64 8
  store ptr %112, ptr %6, align 8, !tbaa !7
  br label %29, !llvm.loop !13

113:                                              ; preds = %29
  br label %114

114:                                              ; preds = %129, %113
  %115 = load i32, ptr %8, align 4, !tbaa !10
  %116 = zext i32 %115 to i64
  %117 = load i64, ptr %11, align 8, !tbaa !3
  %118 = icmp ult i64 %116, %117
  br i1 %118, label %119, label %132

119:                                              ; preds = %114
  %120 = load ptr, ptr %6, align 8, !tbaa !7
  %121 = getelementptr inbounds nuw i8, ptr %120, i32 1
  store ptr %121, ptr %6, align 8, !tbaa !7
  %122 = load i8, ptr %120, align 1, !tbaa !12
  %123 = zext i8 %122 to i32
  %124 = load i32, ptr %9, align 4, !tbaa !10
  %125 = add i32 %124, %123
  store i32 %125, ptr %9, align 4, !tbaa !10
  %126 = load i32, ptr %9, align 4, !tbaa !10
  %127 = load i32, ptr %10, align 4, !tbaa !10
  %128 = add i32 %127, %126
  store i32 %128, ptr %10, align 4, !tbaa !10
  br label %129

129:                                              ; preds = %119
  %130 = load i32, ptr %8, align 4, !tbaa !10
  %131 = add i32 %130, 1
  store i32 %131, ptr %8, align 4, !tbaa !10
  br label %114, !llvm.loop !15

132:                                              ; preds = %114
  %133 = load i32, ptr %9, align 4, !tbaa !10
  %134 = urem i32 %133, 65521
  store i32 %134, ptr %9, align 4, !tbaa !10
  %135 = load i32, ptr %10, align 4, !tbaa !10
  %136 = urem i32 %135, 65521
  store i32 %136, ptr %10, align 4, !tbaa !10
  %137 = load i64, ptr %11, align 8, !tbaa !3
  %138 = load i64, ptr %7, align 8, !tbaa !3
  %139 = sub i64 %138, %137
  store i64 %139, ptr %7, align 8, !tbaa !3
  store i64 5552, ptr %11, align 8, !tbaa !3
  br label %25, !llvm.loop !16

140:                                              ; preds = %25
  %141 = load i32, ptr %10, align 4, !tbaa !10
  %142 = shl i32 %141, 16
  %143 = load i32, ptr %9, align 4, !tbaa !10
  %144 = add i32 %142, %143
  %145 = zext i32 %144 to i64
  store i64 %145, ptr %4, align 8
  store i32 1, ptr %12, align 4
  br label %146

146:                                              ; preds = %140, %23
  call void @llvm.lifetime.end.p0(i64 8, ptr %11) #11
  call void @llvm.lifetime.end.p0(i64 4, ptr %10) #11
  call void @llvm.lifetime.end.p0(i64 4, ptr %9) #11
  call void @llvm.lifetime.end.p0(i64 4, ptr %8) #11
  %147 = load i64, ptr %4, align 8
  ret i64 %147
}