; Function Attrs: mustprogress nofree norecurse nosync nounwind willreturn memory(argmem: read) uwtable
define noundef range(i64 0, 4294967296) i64 @_ZN12duckdb_miniz10mz_adler32EmPKhm(i64 noundef %0, ptr noundef readonly captures(address_is_null) %1, i64 noundef %2) local_unnamed_addr #0 {
  %.not = icmp eq ptr %1, null
  br i1 %.not, label %68, label %.preheader68

.preheader68:                                     ; preds = %3
  %4 = lshr i64 %0, 16
  %5 = trunc i64 %4 to i32
  %6 = trunc i64 %0 to i32
  %7 = and i32 %6, 65535
  %.not6684 = icmp eq i64 %2, 0
  br i1 %.not6684, label %._crit_edge90, label %.preheader67.preheader

.preheader67.preheader:                           ; preds = %.preheader68
  %8 = urem i64 %2, 5552
  br label %.preheader67

.preheader67:                                     ; preds = %.preheader67.preheader, %._crit_edge
  %.089 = phi i64 [ 5552, %._crit_edge ], [ %8, %.preheader67.preheader ]
  %.05488 = phi i32 [ %63, %._crit_edge ], [ %5, %.preheader67.preheader ]
  %.05587 = phi i32 [ %62, %._crit_edge ], [ %7, %.preheader67.preheader ]
  %.06086 = phi i64 [ %64, %._crit_edge ], [ %2, %.preheader67.preheader ]
  %.06185 = phi ptr [ %.263.lcssa, %._crit_edge ], [ %1, %.preheader67.preheader ]
  %9 = icmp samesign ugt i64 %.089, 7
  br i1 %9, label %.lr.ph.preheader, label %.preheader

.lr.ph.preheader:                                 ; preds = %.preheader67
  %10 = trunc nuw nsw i64 %.089 to i32
  br label %.lr.ph

.preheader.loopexit:                              ; preds = %.lr.ph
  %11 = zext i32 %53 to i64
  br label %.preheader

.preheader:                                       ; preds = %.preheader.loopexit, %.preheader67
  %.162.lcssa = phi ptr [ %.06185, %.preheader67 ], [ %54, %.preheader.loopexit ]
  %.058.lcssa = phi i64 [ 0, %.preheader67 ], [ %11, %.preheader.loopexit ]
  %.156.lcssa = phi i32 [ %.05587, %.preheader67 ], [ %51, %.preheader.loopexit ]
  %.1.lcssa = phi i32 [ %.05488, %.preheader67 ], [ %52, %.preheader.loopexit ]
  %12 = icmp samesign ugt i64 %.089, %.058.lcssa
  br i1 %12, label %.lr.ph80.preheader, label %._crit_edge

.lr.ph80.preheader:                               ; preds = %.preheader
  %13 = sub nuw nsw i64 %.089, %.058.lcssa
  br label %.lr.ph80

.lr.ph:                                           ; preds = %.lr.ph.preheader, %.lr.ph
  %.172 = phi i32 [ %52, %.lr.ph ], [ %.05488, %.lr.ph.preheader ]
  %.15671 = phi i32 [ %51, %.lr.ph ], [ %.05587, %.lr.ph.preheader ]
  %.05870 = phi i32 [ %53, %.lr.ph ], [ 0, %.lr.ph.preheader ]
  %.16269 = phi ptr [ %54, %.lr.ph ], [ %.06185, %.lr.ph.preheader ]
  %14 = load i8, ptr %.16269, align 1, !tbaa !3
  %15 = zext i8 %14 to i32
  %16 = add i32 %.15671, %15
  %17 = add i32 %16, %.172
  %18 = getelementptr inbounds nuw i8, ptr %.16269, i64 1
  %19 = load i8, ptr %18, align 1, !tbaa !3
  %20 = zext i8 %19 to i32
  %21 = add i32 %16, %20
  %22 = add i32 %17, %21
  %23 = getelementptr inbounds nuw i8, ptr %.16269, i64 2
  %24 = load i8, ptr %23, align 1, !tbaa !3
  %25 = zext i8 %24 to i32
  %26 = add i32 %21, %25
  %27 = add i32 %22, %26
  %28 = getelementptr inbounds nuw i8, ptr %.16269, i64 3
  %29 = load i8, ptr %28, align 1, !tbaa !3
  %30 = zext i8 %29 to i32
  %31 = add i32 %26, %30
  %32 = add i32 %27, %31
  %33 = getelementptr inbounds nuw i8, ptr %.16269, i64 4
  %34 = load i8, ptr %33, align 1, !tbaa !3
  %35 = zext i8 %34 to i32
  %36 = add i32 %31, %35
  %37 = add i32 %32, %36
  %38 = getelementptr inbounds nuw i8, ptr %.16269, i64 5
  %39 = load i8, ptr %38, align 1, !tbaa !3
  %40 = zext i8 %39 to i32
  %41 = add i32 %36, %40
  %42 = add i32 %37, %41
  %43 = getelementptr inbounds nuw i8, ptr %.16269, i64 6
  %44 = load i8, ptr %43, align 1, !tbaa !3
  %45 = zext i8 %44 to i32
  %46 = add i32 %41, %45
  %47 = add i32 %42, %46
  %48 = getelementptr inbounds nuw i8, ptr %.16269, i64 7
  %49 = load i8, ptr %48, align 1, !tbaa !3
  %50 = zext i8 %49 to i32
  %51 = add i32 %46, %50
  %52 = add i32 %47, %51
  %53 = add nuw i32 %.05870, 8
  %54 = getelementptr inbounds nuw i8, ptr %.16269, i64 8
  %55 = or disjoint i32 %53, 7
  %56 = icmp ult i32 %55, %10
  br i1 %56, label %.lr.ph, label %.preheader.loopexit, !llvm.loop !6

.lr.ph80:                                         ; preds = %.lr.ph80.preheader, %.lr.ph80
  %indvars.iv = phi i64 [ %.058.lcssa, %.lr.ph80.preheader ], [ %indvars.iv.next, %.lr.ph80 ]
  %.279 = phi i32 [ %.1.lcssa, %.lr.ph80.preheader ], [ %61, %.lr.ph80 ]
  %.25778 = phi i32 [ %.156.lcssa, %.lr.ph80.preheader ], [ %60, %.lr.ph80 ]
  %.26376 = phi ptr [ %.162.lcssa, %.lr.ph80.preheader ], [ %57, %.lr.ph80 ]
  %57 = getelementptr inbounds nuw i8, ptr %.26376, i64 1
  %58 = load i8, ptr %.26376, align 1, !tbaa !3
  %59 = zext i8 %58 to i32
  %60 = add i32 %.25778, %59
  %61 = add i32 %60, %.279
  %indvars.iv.next = add nuw nsw i64 %indvars.iv, 1
  %exitcond.not = icmp eq i64 %indvars.iv.next, %.089
  br i1 %exitcond.not, label %._crit_edge.loopexit, label %.lr.ph80, !llvm.loop !8

._crit_edge.loopexit:                             ; preds = %.lr.ph80
  %scevgep = getelementptr i8, ptr %.162.lcssa, i64 %13
  br label %._crit_edge

._crit_edge:                                      ; preds = %._crit_edge.loopexit, %.preheader
  %.263.lcssa = phi ptr [ %.162.lcssa, %.preheader ], [ %scevgep, %._crit_edge.loopexit ]
  %.257.lcssa = phi i32 [ %.156.lcssa, %.preheader ], [ %60, %._crit_edge.loopexit ]
  %.2.lcssa = phi i32 [ %.1.lcssa, %.preheader ], [ %61, %._crit_edge.loopexit ]
  %62 = urem i32 %.257.lcssa, 65521
  %63 = urem i32 %.2.lcssa, 65521
  %64 = sub i64 %.06086, %.089
  %.not66 = icmp eq i64 %64, 0
  br i1 %.not66, label %._crit_edge90, label %.preheader67, !llvm.loop !9

._crit_edge90:                                    ; preds = %._crit_edge, %.preheader68
  %.055.lcssa = phi i32 [ %7, %.preheader68 ], [ %62, %._crit_edge ]
  %.054.lcssa = phi i32 [ %5, %.preheader68 ], [ %63, %._crit_edge ]
  %65 = shl i32 %.054.lcssa, 16
  %66 = or disjoint i32 %65, %.055.lcssa
  %67 = zext i32 %66 to i64
  br label %68

68:                                               ; preds = %3, %._crit_edge90
  %.064 = phi i64 [ %67, %._crit_edge90 ], [ 1, %3 ]
  ret i64 %.064
}